target datalayout = "e-m:e-p270:32:32-p271:32:32-p272:64:64-i64:64-i128:128-f80:128-n8:16:32:64-S128"
target triple = "x86_64-pc-linux-gnu"

%"class.gmx::ArrayRef.0" = type { %"struct.gmx::ArrayRefIter.1", %"struct.gmx::ArrayRefIter.1" }
%"struct.gmx::ArrayRefIter.1" = type { ptr }
%"class.gmx::BasicVector" = type { [3 x float] }
%"class.gmx::ArrayRef.223" = type { %"struct.gmx::ArrayRefIter.224", %"struct.gmx::ArrayRefIter.224" }
%"struct.gmx::ArrayRefIter.224" = type { ptr }
%"class.gmx::ArrayRef.229" = type { %"struct.gmx::ArrayRefIter.230", %"struct.gmx::ArrayRefIter.230" }
%"struct.gmx::ArrayRefIter.230" = type { ptr }
%"class.std::unique_ptr.270" = type { %"struct.std::__uniq_ptr_data.271" }
%"struct.std::__uniq_ptr_data.271" = type { %"class.std::__uniq_ptr_impl.272" }
%"class.std::__uniq_ptr_impl.272" = type { %"class.std::tuple.273" }
%"class.std::tuple.273" = type { %"struct.std::_Tuple_impl.274" }
%"struct.std::_Tuple_impl.274" = type { %"struct.std::_Head_base.277" }
%"struct.std::_Head_base.277" = type { ptr }
%"class.nblib::GmxNBForceCalculatorCpu" = type { %"class.std::unique_ptr.270" }

; Function Attrs: mustprogress nounwind uwtable
define linkonce_odr noundef nonnull align 8 dereferenceable(8) ptr @_ZNSt10_Head_baseILm0EPN5nblib23GmxNBForceCalculatorCpu7CpuImplELb0EE7_M_headERKS4_(ptr noundef nonnull align 8 dereferenceable(8) %0) #2 comdat align 2 {
  %2 = alloca ptr, align 8
  store ptr %0, ptr %2, align 8
  %3 = load ptr, ptr %2, align 8
  %4 = getelementptr inbounds %"struct.std::_Head_base.277", ptr %3, i32 0, i32 0
  ret ptr %4
}

; Function Attrs: mustprogress nounwind uwtable
define linkonce_odr noundef nonnull align 8 dereferenceable(8) ptr @_ZNSt11_Tuple_implILm0EJPN5nblib23GmxNBForceCalculatorCpu7CpuImplESt14default_deleteIS2_EEE7_M_headERKS6_(ptr noundef nonnull align 8 dereferenceable(8) %0) #2 comdat align 2 {
  %2 = alloca ptr, align 8
  store ptr %0, ptr %2, align 8
  %3 = load ptr, ptr %2, align 8
  %4 = call noundef nonnull align 8 dereferenceable(8) ptr @_ZNSt10_Head_baseILm0EPN5nblib23GmxNBForceCalculatorCpu7CpuImplELb0EE7_M_headERKS4_(ptr noundef nonnull align 8 dereferenceable(8) %3) #13
  ret ptr %4
}

; Function Attrs: mustprogress nounwind uwtable
define linkonce_odr noundef nonnull align 8 dereferenceable(8) ptr @_ZSt12__get_helperILm0EPN5nblib23GmxNBForceCalculatorCpu7CpuImplEJSt14default_deleteIS2_EEERKT0_RKSt11_Tuple_implIXT_EJS6_DpT1_EE(ptr noundef nonnull align 8 dereferenceable(8) %0) #2 comdat {
  %2 = alloca ptr, align 8
  store ptr %0, ptr %2, align 8
  %3 = load ptr, ptr %2, align 8
  %4 = call noundef nonnull align 8 dereferenceable(8) ptr @_ZNSt11_Tuple_implILm0EJPN5nblib23GmxNBForceCalculatorCpu7CpuImplESt14default_deleteIS2_EEE7_M_headERKS6_(ptr noundef nonnull align 8 dereferenceable(8) %3) #13
  ret ptr %4
}

; Function Attrs: mustprogress nounwind uwtable
define linkonce_odr noundef nonnull align 8 dereferenceable(8) ptr @_ZSt3getILm0EJPN5nblib23GmxNBForceCalculatorCpu7CpuImplESt14default_deleteIS2_EEERKNSt13tuple_elementIXT_ESt5tupleIJDpT0_EEE4typeERKSA_(ptr noundef nonnull align 8 dereferenceable(8) %0) #2 comdat {
  %2 = alloca ptr, align 8
  store ptr %0, ptr %2, align 8
  %3 = load ptr, ptr %2, align 8
  %4 = call noundef nonnull align 8 dereferenceable(8) ptr @_ZSt12__get_helperILm0EPN5nblib23GmxNBForceCalculatorCpu7CpuImplEJSt14default_deleteIS2_EEERKT0_RKSt11_Tuple_implIXT_EJS6_DpT1_EE(ptr noundef nonnull align 8 dereferenceable(8) %3) #13
  ret ptr %4
}

; Function Attrs: mustprogress nounwind uwtable
define linkonce_odr noundef i64 @_ZNK3gmx12ArrayRefIterIfEmiES1_(ptr noundef nonnull align 8 dereferenceable(8) %0, ptr %1) #2 comdat align 2 {
  %3 = alloca %"struct.gmx::ArrayRefIter.1", align 8
  %4 = alloca ptr, align 8
  %5 = getelementptr inbounds %"struct.gmx::ArrayRefIter.1", ptr %3, i32 0, i32 0
  store ptr %1, ptr %5, align 8
  store ptr %0, ptr %4, align 8
  %6 = load ptr, ptr %4, align 8
  %7 = getelementptr inbounds %"struct.gmx::ArrayRefIter.1", ptr %6, i32 0, i32 0
  %8 = load ptr, ptr %7, align 8
  %9 = getelementptr inbounds %"struct.gmx::ArrayRefIter.1", ptr %3, i32 0, i32 0
  %10 = load ptr, ptr %9, align 8
  %11 = ptrtoint ptr %8 to i64
  %12 = ptrtoint ptr %10 to i64
  %13 = sub i64 %11, %12
  %14 = sdiv exact i64 %13, 4
  ret i64 %14
}

; Function Attrs: mustprogress nounwind uwtable
define linkonce_odr noundef ptr @_ZNK3gmx12ArrayRefIterIfE4dataEv(ptr noundef nonnull align 8 dereferenceable(8) %0) #2 comdat align 2 {
  %2 = alloca ptr, align 8
  store ptr %0, ptr %2, align 8
  %3 = load ptr, ptr %2, align 8
  %4 = getelementptr inbounds %"struct.gmx::ArrayRefIter.1", ptr %3, i32 0, i32 0
  %5 = load ptr, ptr %4, align 8
  ret ptr %5
}

; Function Attrs: mustprogress nounwind uwtable
define linkonce_odr noundef i64 @_ZNK3gmx12ArrayRefIterINS_11BasicVectorIfEEEmiES3_(ptr noundef nonnull align 8 dereferenceable(8) %0, ptr %1) #2 comdat align 2 {
  %3 = alloca %"struct.gmx::ArrayRefIter.224", align 8
  %4 = alloca ptr, align 8
  %5 = getelementptr inbounds %"struct.gmx::ArrayRefIter.224", ptr %3, i32 0, i32 0
  store ptr %1, ptr %5, align 8
  store ptr %0, ptr %4, align 8
  %6 = load ptr, ptr %4, align 8
  %7 = getelementptr inbounds %"struct.gmx::ArrayRefIter.224", ptr %6, i32 0, i32 0
  %8 = load ptr, ptr %7, align 8
  %9 = getelementptr inbounds %"struct.gmx::ArrayRefIter.224", ptr %3, i32 0, i32 0
  %10 = load ptr, ptr %9, align 8
  %11 = ptrtoint ptr %8 to i64
  %12 = ptrtoint ptr %10 to i64
  %13 = sub i64 %11, %12
  %14 = sdiv exact i64 %13, 12
  ret i64 %14
}

; Function Attrs: mustprogress nounwind uwtable
define linkonce_odr noundef ptr @_ZNK3gmx12ArrayRefIterINS_11BasicVectorIfEEE4dataEv(ptr noundef nonnull align 8 dereferenceable(8) %0) #2 comdat align 2 {
  %2 = alloca ptr, align 8
  store ptr %0, ptr %2, align 8
  %3 = load ptr, ptr %2, align 8
  %4 = getelementptr inbounds %"struct.gmx::ArrayRefIter.224", ptr %3, i32 0, i32 0
  %5 = load ptr, ptr %4, align 8
  ret ptr %5
}

; Function Attrs: mustprogress nounwind uwtable
define linkonce_odr noundef i64 @_ZNK3gmx12ArrayRefIterIKNS_11BasicVectorIfEEEmiES4_(ptr noundef nonnull align 8 dereferenceable(8) %0, ptr %1) #2 comdat align 2 {
  %3 = alloca %"struct.gmx::ArrayRefIter.230", align 8
  %4 = alloca ptr, align 8
  %5 = getelementptr inbounds %"struct.gmx::ArrayRefIter.230", ptr %3, i32 0, i32 0
  store ptr %1, ptr %5, align 8
  store ptr %0, ptr %4, align 8
  %6 = load ptr, ptr %4, align 8
  %7 = getelementptr inbounds %"struct.gmx::ArrayRefIter.230", ptr %6, i32 0, i32 0
  %8 = load ptr, ptr %7, align 8
  %9 = getelementptr inbounds %"struct.gmx::ArrayRefIter.230", ptr %3, i32 0, i32 0
  %10 = load ptr, ptr %9, align 8
  %11 = ptrtoint ptr %8 to i64
  %12 = ptrtoint ptr %10 to i64
  %13 = sub i64 %11, %12
  %14 = sdiv exact i64 %13, 12
  ret i64 %14
}

; Function Attrs: mustprogress nounwind uwtable
define linkonce_odr noundef ptr @_ZNK3gmx12ArrayRefIterIKNS_11BasicVectorIfEEE4dataEv(ptr noundef nonnull align 8 dereferenceable(8) %0) #2 comdat align 2 {
  %2 = alloca ptr, align 8
  store ptr %0, ptr %2, align 8
  %3 = load ptr, ptr %2, align 8
  %4 = getelementptr inbounds %"struct.gmx::ArrayRefIter.230", ptr %3, i32 0, i32 0
  %5 = load ptr, ptr %4, align 8
  ret ptr %5
}

; Function Attrs: mustprogress nounwind uwtable
define linkonce_odr noundef ptr @_ZNKSt15__uniq_ptr_implIN5nblib23GmxNBForceCalculatorCpu7CpuImplESt14default_deleteIS2_EE6_M_ptrEv(ptr noundef nonnull align 8 dereferenceable(8) %0) #2 comdat align 2 {
  %2 = alloca ptr, align 8
  store ptr %0, ptr %2, align 8
  %3 = load ptr, ptr %2, align 8
  %4 = getelementptr inbounds %"class.std::__uniq_ptr_impl.272", ptr %3, i32 0, i32 0
  %5 = call noundef nonnull align 8 dereferenceable(8) ptr @_ZSt3getILm0EJPN5nblib23GmxNBForceCalculatorCpu7CpuImplESt14default_deleteIS2_EEERKNSt13tuple_elementIXT_ESt5tupleIJDpT0_EEE4typeERKSA_(ptr noundef nonnull align 8 dereferenceable(8) %4) #13
  %6 = load ptr, ptr %5, align 8
  ret ptr %6
}

; Function Attrs: mustprogress nounwind uwtable
define linkonce_odr noundef i64 @_ZNK3gmx8ArrayRefIfE4sizeEv(ptr noundef nonnull align 8 dereferenceable(16) %0) #2 comdat align 2 {
  %2 = alloca ptr, align 8
  %3 = alloca %"struct.gmx::ArrayRefIter.1", align 8
  store ptr %0, ptr %2, align 8
  %4 = load ptr, ptr %2, align 8
  %5 = getelementptr inbounds %"class.gmx::ArrayRef.0", ptr %4, i32 0, i32 1
  %6 = getelementptr inbounds %"class.gmx::ArrayRef.0", ptr %4, i32 0, i32 0
  call void @llvm.memcpy.p0.p0.i64(ptr align 8 %3, ptr align 8 %6, i64 8, i1 false)
  %7 = getelementptr inbounds %"struct.gmx::ArrayRefIter.1", ptr %3, i32 0, i32 0
  %8 = load ptr, ptr %7, align 8
  %9 = call noundef i64 @_ZNK3gmx12ArrayRefIterIfEmiES1_(ptr noundef nonnull align 8 dereferenceable(8) %5, ptr %8) #13
  ret i64 %9
}

; Function Attrs: mustprogress nounwind uwtable
define linkonce_odr void @_ZN3gmx12ArrayRefIterIfEC2EPf(ptr noundef nonnull align 8 dereferenceable(8) %0, ptr noundef %1) unnamed_addr #2 comdat align 2 {
  %3 = alloca ptr, align 8
  %4 = alloca ptr, align 8
  store ptr %0, ptr %3, align 8
  store ptr %1, ptr %4, align 8
  %5 = load ptr, ptr %3, align 8
  %6 = getelementptr inbounds %"struct.gmx::ArrayRefIter.1", ptr %5, i32 0, i32 0
  %7 = load ptr, ptr %4, align 8
  store ptr %7, ptr %6, align 8
  ret void
}

; Function Attrs: mustprogress nounwind uwtable
define linkonce_odr noundef ptr @_ZNK3gmx8ArrayRefIfE4dataEv(ptr noundef nonnull align 8 dereferenceable(16) %0) #2 comdat align 2 {
  %2 = alloca ptr, align 8
  store ptr %0, ptr %2, align 8
  %3 = load ptr, ptr %2, align 8
  %4 = getelementptr inbounds %"class.gmx::ArrayRef.0", ptr %3, i32 0, i32 0
  %5 = call noundef ptr @_ZNK3gmx12ArrayRefIterIfE4dataEv(ptr noundef nonnull align 8 dereferenceable(8) %4) #13
  ret ptr %5
}

; Function Attrs: mustprogress nounwind uwtable
define linkonce_odr noundef i64 @_ZNK3gmx8ArrayRefINS_11BasicVectorIfEEE4sizeEv(ptr noundef nonnull align 8 dereferenceable(16) %0) #2 comdat align 2 {
  %2 = alloca ptr, align 8
  %3 = alloca %"struct.gmx::ArrayRefIter.224", align 8
  store ptr %0, ptr %2, align 8
  %4 = load ptr, ptr %2, align 8
  %5 = getelementptr inbounds %"class.gmx::ArrayRef.223", ptr %4, i32 0, i32 1
  %6 = getelementptr inbounds %"class.gmx::ArrayRef.223", ptr %4, i32 0, i32 0
  call void @llvm.memcpy.p0.p0.i64(ptr align 8 %3, ptr align 8 %6, i64 8, i1 false)
  %7 = getelementptr inbounds %"struct.gmx::ArrayRefIter.224", ptr %3, i32 0, i32 0
  %8 = load ptr, ptr %7, align 8
  %9 = call noundef i64 @_ZNK3gmx12ArrayRefIterINS_11BasicVectorIfEEEmiES3_(ptr noundef nonnull align 8 dereferenceable(8) %5, ptr %8) #13
  ret i64 %9
}

; Function Attrs: mustprogress nounwind uwtable
define linkonce_odr void @_ZN3gmx12ArrayRefIterINS_11BasicVectorIfEEEC2EPS2_(ptr noundef nonnull align 8 dereferenceable(8) %0, ptr noundef %1) unnamed_addr #2 comdat align 2 {
  %3 = alloca ptr, align 8
  %4 = alloca ptr, align 8
  store ptr %0, ptr %3, align 8
  store ptr %1, ptr %4, align 8
  %5 = load ptr, ptr %3, align 8
  %6 = getelementptr inbounds %"struct.gmx::ArrayRefIter.224", ptr %5, i32 0, i32 0
  %7 = load ptr, ptr %4, align 8
  store ptr %7, ptr %6, align 8
  ret void
}

; Function Attrs: mustprogress nounwind uwtable
define linkonce_odr noundef ptr @_ZNK3gmx8ArrayRefINS_11BasicVectorIfEEE4dataEv(ptr noundef nonnull align 8 dereferenceable(16) %0) #2 comdat align 2 {
  %2 = alloca ptr, align 8
  store ptr %0, ptr %2, align 8
  %3 = load ptr, ptr %2, align 8
  %4 = getelementptr inbounds %"class.gmx::ArrayRef.223", ptr %3, i32 0, i32 0
  %5 = call noundef ptr @_ZNK3gmx12ArrayRefIterINS_11BasicVectorIfEEE4dataEv(ptr noundef nonnull align 8 dereferenceable(8) %4) #13
  ret ptr %5
}

; Function Attrs: mustprogress nounwind uwtable
define linkonce_odr noundef i64 @_ZNK3gmx8ArrayRefIKNS_11BasicVectorIfEEE4sizeEv(ptr noundef nonnull align 8 dereferenceable(16) %0) #2 comdat align 2 {
  %2 = alloca ptr, align 8
  %3 = alloca %"struct.gmx::ArrayRefIter.230", align 8
  store ptr %0, ptr %2, align 8
  %4 = load ptr, ptr %2, align 8
  %5 = getelementptr inbounds %"class.gmx::ArrayRef.229", ptr %4, i32 0, i32 1
  %6 = getelementptr inbounds %"class.gmx::ArrayRef.229", ptr %4, i32 0, i32 0
  call void @llvm.memcpy.p0.p0.i64(ptr align 8 %3, ptr align 8 %6, i64 8, i1 false)
  %7 = getelementptr inbounds %"struct.gmx::ArrayRefIter.230", ptr %3, i32 0, i32 0
  %8 = load ptr, ptr %7, align 8
  %9 = call noundef i64 @_ZNK3gmx12ArrayRefIterIKNS_11BasicVectorIfEEEmiES4_(ptr noundef nonnull align 8 dereferenceable(8) %5, ptr %8) #13
  ret i64 %9
}

; Function Attrs: mustprogress nounwind uwtable
define linkonce_odr void @_ZN3gmx12ArrayRefIterIKNS_11BasicVectorIfEEEC2EPS3_(ptr noundef nonnull align 8 dereferenceable(8) %0, ptr noundef %1) unnamed_addr #2 comdat align 2 {
  %3 = alloca ptr, align 8
  %4 = alloca ptr, align 8
  store ptr %0, ptr %3, align 8
  store ptr %1, ptr %4, align 8
  %5 = load ptr, ptr %3, align 8
  %6 = getelementptr inbounds %"struct.gmx::ArrayRefIter.230", ptr %5, i32 0, i32 0
  %7 = load ptr, ptr %4, align 8
  store ptr %7, ptr %6, align 8
  ret void
}

; Function Attrs: mustprogress nounwind uwtable
define linkonce_odr noundef ptr @_ZNK3gmx8ArrayRefIKNS_11BasicVectorIfEEE4dataEv(ptr noundef nonnull align 8 dereferenceable(16) %0) #2 comdat align 2 {
  %2 = alloca ptr, align 8
  store ptr %0, ptr %2, align 8
  %3 = load ptr, ptr %2, align 8
  %4 = getelementptr inbounds %"class.gmx::ArrayRef.229", ptr %3, i32 0, i32 0
  %5 = call noundef ptr @_ZNK3gmx12ArrayRefIterIKNS_11BasicVectorIfEEE4dataEv(ptr noundef nonnull align 8 dereferenceable(8) %4) #13
  ret ptr %5
}

; Function Attrs: mustprogress nounwind uwtable
define linkonce_odr noundef ptr @_ZNKSt10unique_ptrIN5nblib23GmxNBForceCalculatorCpu7CpuImplESt14default_deleteIS2_EE3getEv(ptr noundef nonnull align 8 dereferenceable(8) %0) #2 comdat align 2 {
  %2 = alloca ptr, align 8
  store ptr %0, ptr %2, align 8
  %3 = load ptr, ptr %2, align 8
  %4 = getelementptr inbounds %"class.std::unique_ptr.270", ptr %3, i32 0, i32 0
  %5 = call noundef ptr @_ZNKSt15__uniq_ptr_implIN5nblib23GmxNBForceCalculatorCpu7CpuImplESt14default_deleteIS2_EE6_M_ptrEv(ptr noundef nonnull align 8 dereferenceable(8) %4) #13
  ret ptr %5
}

; Function Attrs: mustprogress uwtable
define linkonce_odr void @_ZN3gmx8ArrayRefIfEC2IRS1_vEEOT_(ptr noundef nonnull align 8 dereferenceable(16) %0, ptr noundef nonnull align 8 dereferenceable(16) %1) unnamed_addr #0 comdat align 2 {
  %3 = alloca ptr, align 8
  %4 = alloca ptr, align 8
  store ptr %0, ptr %3, align 8
  store ptr %1, ptr %4, align 8
  %5 = load ptr, ptr %3, align 8
  %6 = getelementptr inbounds %"class.gmx::ArrayRef.0", ptr %5, i32 0, i32 0
  %7 = load ptr, ptr %4, align 8
  %8 = call noundef ptr @_ZNK3gmx8ArrayRefIfE4dataEv(ptr noundef nonnull align 8 dereferenceable(16) %7)
  call void @_ZN3gmx12ArrayRefIterIfEC2EPf(ptr noundef nonnull align 8 dereferenceable(8) %6, ptr noundef %8) #13
  %9 = getelementptr inbounds %"class.gmx::ArrayRef.0", ptr %5, i32 0, i32 1
  %10 = load ptr, ptr %4, align 8
  %11 = call noundef ptr @_ZNK3gmx8ArrayRefIfE4dataEv(ptr noundef nonnull align 8 dereferenceable(16) %10)
  %12 = load ptr, ptr %4, align 8
  %13 = call noundef i64 @_ZNK3gmx8ArrayRefIfE4sizeEv(ptr noundef nonnull align 8 dereferenceable(16) %12)
  %14 = getelementptr inbounds float, ptr %11, i64 %13
  call void @_ZN3gmx12ArrayRefIterIfEC2EPf(ptr noundef nonnull align 8 dereferenceable(8) %9, ptr noundef %14) #13
  ret void
}

; Function Attrs: mustprogress uwtable
define linkonce_odr void @_ZN3gmx8ArrayRefINS_11BasicVectorIfEEEC2IRS3_vEEOT_(ptr noundef nonnull align 8 dereferenceable(16) %0, ptr noundef nonnull align 8 dereferenceable(16) %1) unnamed_addr #0 comdat align 2 {
  %3 = alloca ptr, align 8
  %4 = alloca ptr, align 8
  store ptr %0, ptr %3, align 8
  store ptr %1, ptr %4, align 8
  %5 = load ptr, ptr %3, align 8
  %6 = getelementptr inbounds %"class.gmx::ArrayRef.223", ptr %5, i32 0, i32 0
  %7 = load ptr, ptr %4, align 8
  %8 = call noundef ptr @_ZNK3gmx8ArrayRefINS_11BasicVectorIfEEE4dataEv(ptr noundef nonnull align 8 dereferenceable(16) %7)
  call void @_ZN3gmx12ArrayRefIterINS_11BasicVectorIfEEEC2EPS2_(ptr noundef nonnull align 8 dereferenceable(8) %6, ptr noundef %8) #13
  %9 = getelementptr inbounds %"class.gmx::ArrayRef.223", ptr %5, i32 0, i32 1
  %10 = load ptr, ptr %4, align 8
  %11 = call noundef ptr @_ZNK3gmx8ArrayRefINS_11BasicVectorIfEEE4dataEv(ptr noundef nonnull align 8 dereferenceable(16) %10)
  %12 = load ptr, ptr %4, align 8
  %13 = call noundef i64 @_ZNK3gmx8ArrayRefINS_11BasicVectorIfEEE4sizeEv(ptr noundef nonnull align 8 dereferenceable(16) %12)
  %14 = getelementptr inbounds %"class.gmx::BasicVector", ptr %11, i64 %13
  call void @_ZN3gmx12ArrayRefIterINS_11BasicVectorIfEEEC2EPS2_(ptr noundef nonnull align 8 dereferenceable(8) %9, ptr noundef %14) #13
  ret void
}

; Function Attrs: mustprogress uwtable
define linkonce_odr void @_ZN3gmx8ArrayRefIKNS_11BasicVectorIfEEEC2IRS4_vEEOT_(ptr noundef nonnull align 8 dereferenceable(16) %0, ptr noundef nonnull align 8 dereferenceable(16) %1) unnamed_addr #0 comdat align 2 {
  %3 = alloca ptr, align 8
  %4 = alloca ptr, align 8
  store ptr %0, ptr %3, align 8
  store ptr %1, ptr %4, align 8
  %5 = load ptr, ptr %3, align 8
  %6 = getelementptr inbounds %"class.gmx::ArrayRef.229", ptr %5, i32 0, i32 0
  %7 = load ptr, ptr %4, align 8
  %8 = call noundef ptr @_ZNK3gmx8ArrayRefIKNS_11BasicVectorIfEEE4dataEv(ptr noundef nonnull align 8 dereferenceable(16) %7)
  call void @_ZN3gmx12ArrayRefIterIKNS_11BasicVectorIfEEEC2EPS3_(ptr noundef nonnull align 8 dereferenceable(8) %6, ptr noundef %8) #13
  %9 = getelementptr inbounds %"class.gmx::ArrayRef.229", ptr %5, i32 0, i32 1
  %10 = load ptr, ptr %4, align 8
  %11 = call noundef ptr @_ZNK3gmx8ArrayRefIKNS_11BasicVectorIfEEE4dataEv(ptr noundef nonnull align 8 dereferenceable(16) %10)
  %12 = load ptr, ptr %4, align 8
  %13 = call noundef i64 @_ZNK3gmx8ArrayRefIKNS_11BasicVectorIfEEE4sizeEv(ptr noundef nonnull align 8 dereferenceable(16) %12)
  %14 = getelementptr inbounds %"class.gmx::BasicVector", ptr %11, i64 %13
  call void @_ZN3gmx12ArrayRefIterIKNS_11BasicVectorIfEEEC2EPS3_(ptr noundef nonnull align 8 dereferenceable(8) %9, ptr noundef %14) #13
  ret void
}

; Function Attrs: mustprogress nounwind uwtable
define linkonce_odr noundef ptr @_ZNKSt10unique_ptrIN5nblib23GmxNBForceCalculatorCpu7CpuImplESt14default_deleteIS2_EEptEv(ptr noundef nonnull align 8 dereferenceable(8) %0) #2 comdat align 2 {
  %2 = alloca ptr, align 8
  store ptr %0, ptr %2, align 8
  %3 = load ptr, ptr %2, align 8
  %4 = call noundef ptr @_ZNKSt10unique_ptrIN5nblib23GmxNBForceCalculatorCpu7CpuImplESt14default_deleteIS2_EE3getEv(ptr noundef nonnull align 8 dereferenceable(8) %3) #13
  ret ptr %4
}

; Function Attrs: mustprogress uwtable
define void @_ZN5nblib23GmxNBForceCalculatorCpu7computeEN3gmx8ArrayRefIKNS1_11BasicVectorIfEEEERKNS_3BoxENS2_IS4_EENS2_IfEESB_(ptr noundef nonnull align 8 dereferenceable(8) %0, ptr %1, ptr %2, ptr noundef nonnull align 4 dereferenceable(36) %3, ptr %4, ptr %5, ptr noundef byval(%"class.gmx::ArrayRef.0") align 8 %6, ptr noundef byval(%"class.gmx::ArrayRef.0") align 8 %7) #0 align 2 {
  %9 = alloca %"class.gmx::ArrayRef.229", align 8
  %10 = alloca %"class.gmx::ArrayRef.223", align 8
  %11 = alloca ptr, align 8
  %12 = alloca ptr, align 8
  %13 = alloca %"class.gmx::ArrayRef.229", align 8
  %14 = alloca %"class.gmx::ArrayRef.223", align 8
  %15 = alloca %"class.gmx::ArrayRef.0", align 8
  %16 = alloca %"class.gmx::ArrayRef.0", align 8
  %17 = getelementptr inbounds { ptr, ptr }, ptr %9, i32 0, i32 0
  store ptr %1, ptr %17, align 8
  %18 = getelementptr inbounds { ptr, ptr }, ptr %9, i32 0, i32 1
  store ptr %2, ptr %18, align 8
  %19 = getelementptr inbounds { ptr, ptr }, ptr %10, i32 0, i32 0
  store ptr %4, ptr %19, align 8
  %20 = getelementptr inbounds { ptr, ptr }, ptr %10, i32 0, i32 1
  store ptr %5, ptr %20, align 8
  store ptr %0, ptr %11, align 8
  store ptr %3, ptr %12, align 8
  %21 = load ptr, ptr %11, align 8
  %22 = getelementptr inbounds %"class.nblib::GmxNBForceCalculatorCpu", ptr %21, i32 0, i32 0
  %23 = call noundef ptr @_ZNKSt10unique_ptrIN5nblib23GmxNBForceCalculatorCpu7CpuImplESt14default_deleteIS2_EEptEv(ptr noundef nonnull align 8 dereferenceable(8) %22) #13
  call void @_ZN3gmx8ArrayRefIKNS_11BasicVectorIfEEEC2IRS4_vEEOT_(ptr noundef nonnull align 8 dereferenceable(16) %13, ptr noundef nonnull align 8 dereferenceable(16) %9)
  %24 = load ptr, ptr %12, align 8
  call void @_ZN3gmx8ArrayRefINS_11BasicVectorIfEEEC2IRS3_vEEOT_(ptr noundef nonnull align 8 dereferenceable(16) %14, ptr noundef nonnull align 8 dereferenceable(16) %10)
  call void @_ZN3gmx8ArrayRefIfEC2IRS1_vEEOT_(ptr noundef nonnull align 8 dereferenceable(16) %15, ptr noundef nonnull align 8 dereferenceable(16) %6)
  call void @_ZN3gmx8ArrayRefIfEC2IRS1_vEEOT_(ptr noundef nonnull align 8 dereferenceable(16) %16, ptr noundef nonnull align 8 dereferenceable(16) %7)
  %25 = getelementptr inbounds { ptr, ptr }, ptr %13, i32 0, i32 0
  %26 = load ptr, ptr %25, align 8
  %27 = getelementptr inbounds { ptr, ptr }, ptr %13, i32 0, i32 1
  %28 = load ptr, ptr %27, align 8
  %29 = getelementptr inbounds { ptr, ptr }, ptr %14, i32 0, i32 0
  %30 = load ptr, ptr %29, align 8
  %31 = getelementptr inbounds { ptr, ptr }, ptr %14, i32 0, i32 1
  %32 = load ptr, ptr %31, align 8
  call void @_ZN5nblib23GmxNBForceCalculatorCpu7CpuImpl7computeEN3gmx8ArrayRefIKNS2_11BasicVectorIfEEEERKNS_3BoxENS3_IS5_EENS3_IfEESC_(ptr noundef nonnull align 8 dereferenceable(2584) %23, ptr %26, ptr %28, ptr noundef nonnull align 4 dereferenceable(36) %24, ptr %30, ptr %32, ptr noundef byval(%"class.gmx::ArrayRef.0") align 8 %15, ptr noundef byval(%"class.gmx::ArrayRef.0") align 8 %16)
  ret void
}