; Function Attrs: mustprogress uwtable
define void @_ZN5nblib23GmxNBForceCalculatorCpu7computeEN3gmx8ArrayRefIKNS1_11BasicVectorIfEEEERKNS_3BoxENS2_IS4_EENS2_IfEESB_(ptr nocapture noundef nonnull readonly align 8 dereferenceable(8) %0, ptr %1, ptr %2, ptr noundef nonnull align 4 dereferenceable(36) %3, ptr %4, ptr %5, ptr nocapture noundef readonly byval(%"class.gmx::ArrayRef.0") align 8 %6, ptr nocapture noundef readonly byval(%"class.gmx::ArrayRef.0") align 8 %7) local_unnamed_addr #0 align 2 {
  %9 = alloca %"class.gmx::ArrayRef.0", align 8
  %10 = alloca %"class.gmx::ArrayRef.0", align 8
  %11 = load ptr, ptr %0, align 8
  %12 = ptrtoint ptr %2 to i64
  %13 = ptrtoint ptr %1 to i64
  %14 = sub i64 %12, %13
  %15 = getelementptr inbounds i8, ptr %1, i64 %14
  %16 = ptrtoint ptr %5 to i64
  %17 = ptrtoint ptr %4 to i64
  %18 = sub i64 %16, %17
  %19 = getelementptr inbounds i8, ptr %4, i64 %18
  %20 = load ptr, ptr %6, align 8
  store ptr %20, ptr %9, align 8
  %21 = getelementptr inbounds i8, ptr %9, i64 8
  %22 = getelementptr inbounds i8, ptr %6, i64 8
  %23 = load ptr, ptr %22, align 8
  %24 = ptrtoint ptr %23 to i64
  %25 = ptrtoint ptr %20 to i64
  %26 = sub i64 %24, %25
  %27 = getelementptr inbounds i8, ptr %20, i64 %26
  store ptr %27, ptr %21, align 8
  %28 = load ptr, ptr %7, align 8
  store ptr %28, ptr %10, align 8
  %29 = getelementptr inbounds i8, ptr %10, i64 8
  %30 = getelementptr inbounds i8, ptr %7, i64 8
  %31 = load ptr, ptr %30, align 8
  %32 = ptrtoint ptr %31 to i64
  %33 = ptrtoint ptr %28 to i64
  %34 = sub i64 %32, %33
  %35 = getelementptr inbounds i8, ptr %28, i64 %34
  store ptr %35, ptr %29, align 8
  tail call void @_ZN5nblib23GmxNBForceCalculatorCpu7CpuImpl7computeEN3gmx8ArrayRefIKNS2_11BasicVectorIfEEEERKNS_3BoxENS3_IS5_EENS3_IfEESC_(ptr noundef nonnull align 8 dereferenceable(2584) %11, ptr %1, ptr %15, ptr noundef nonnull align 4 dereferenceable(36) %3, ptr %4, ptr %19, ptr noundef nonnull byval(%"class.gmx::ArrayRef.0") align 8 %9, ptr noundef nonnull byval(%"class.gmx::ArrayRef.0") align 8 %10)
  ret void
}